; ModuleID = '11/525.c'
source_filename = "11/525.c"
target datalayout = "e-m:e-p270:32:32-p271:32:32-p272:64:64-i64:64-f80:128-n8:16:32:64-S128"
target triple = "x86_64-pc-linux-gnu"

@.str = private unnamed_addr constant [7 x i8] c"%d%d%d\00", align 1
@.str.1 = private unnamed_addr constant [3 x i8] c"%d\00", align 1

; Function Attrs: noinline nounwind uwtable
define dso_local i32 @main() #0 {
  %1 = alloca i32, align 4
  %2 = alloca i32, align 4
  %3 = alloca i32, align 4
  %4 = alloca i32, align 4
  %5 = alloca i32, align 4
  %6 = alloca i32, align 4
  store i32 0, i32* %1, align 4
  store i32 1, i32* %5, align 4
  store i32 0, i32* %6, align 4
  %7 = call i32 (i8*, ...) @__isoc99_scanf(i8* getelementptr inbounds ([7 x i8], [7 x i8]* @.str, i64 0, i64 0), i32* %2, i32* %3, i32* %4)
  store i32 1, i32* %5, align 4
  br label %8

8:                                                ; preds = %64, %0
  %9 = load i32, i32* %5, align 4
  %10 = load i32, i32* %3, align 4
  %11 = sub nsw i32 %10, 1
  %12 = icmp sle i32 %9, %11
  br i1 %12, label %13, label %67

13:                                               ; preds = %8
  %14 = load i32, i32* %5, align 4
  %15 = icmp eq i32 %14, 1
  br i1 %15, label %34, label %16

16:                                               ; preds = %13
  %17 = load i32, i32* %5, align 4
  %18 = icmp eq i32 %17, 3
  br i1 %18, label %34, label %19

19:                                               ; preds = %16
  %20 = load i32, i32* %5, align 4
  %21 = icmp eq i32 %20, 5
  br i1 %21, label %34, label %22

22:                                               ; preds = %19
  %23 = load i32, i32* %5, align 4
  %24 = icmp eq i32 %23, 7
  br i1 %24, label %34, label %25

25:                                               ; preds = %22
  %26 = load i32, i32* %5, align 4
  %27 = icmp eq i32 %26, 8
  br i1 %27, label %34, label %28

28:                                               ; preds = %25
  %29 = load i32, i32* %5, align 4
  %30 = icmp eq i32 %29, 10
  br i1 %30, label %34, label %31

31:                                               ; preds = %28
  %32 = load i32, i32* %5, align 4
  %33 = icmp eq i32 %32, 12
  br i1 %33, label %34, label %37

34:                                               ; preds = %31, %28, %25, %22, %19, %16, %13
  %35 = load i32, i32* %6, align 4
  %36 = add nsw i32 %35, 31
  store i32 %36, i32* %6, align 4
  br label %63

37:                                               ; preds = %31
  %38 = load i32, i32* %5, align 4
  %39 = icmp eq i32 %38, 2
  br i1 %39, label %40, label %59

40:                                               ; preds = %37
  %41 = load i32, i32* %2, align 4
  %42 = srem i32 %41, 4
  %43 = icmp eq i32 %42, 0
  br i1 %43, label %44, label %48

44:                                               ; preds = %40
  %45 = load i32, i32* %2, align 4
  %46 = srem i32 %45, 100
  %47 = icmp ne i32 %46, 0
  br i1 %47, label %52, label %48

48:                                               ; preds = %44, %40
  %49 = load i32, i32* %2, align 4
  %50 = srem i32 %49, 400
  %51 = icmp eq i32 %50, 0
  br i1 %51, label %52, label %55

52:                                               ; preds = %48, %44
  %53 = load i32, i32* %6, align 4
  %54 = add nsw i32 %53, 29
  store i32 %54, i32* %6, align 4
  br label %58

55:                                               ; preds = %48
  %56 = load i32, i32* %6, align 4
  %57 = add nsw i32 %56, 28
  store i32 %57, i32* %6, align 4
  br label %58

58:                                               ; preds = %55, %52
  br label %62

59:                                               ; preds = %37
  %60 = load i32, i32* %6, align 4
  %61 = add nsw i32 %60, 30
  store i32 %61, i32* %6, align 4
  br label %62

62:                                               ; preds = %59, %58
  br label %63

63:                                               ; preds = %62, %34
  br label %64

64:                                               ; preds = %63
  %65 = load i32, i32* %5, align 4
  %66 = add nsw i32 %65, 1
  store i32 %66, i32* %5, align 4
  br label %8

67:                                               ; preds = %8
  %68 = load i32, i32* %4, align 4
  %69 = load i32, i32* %6, align 4
  %70 = add nsw i32 %69, %68
  store i32 %70, i32* %6, align 4
  %71 = load i32, i32* %6, align 4
  %72 = call i32 (i8*, ...) @printf(i8* getelementptr inbounds ([3 x i8], [3 x i8]* @.str.1, i64 0, i64 0), i32 %71)
  ret i32 0
}

declare dso_local i32 @__isoc99_scanf(i8*, ...) #1

declare dso_local i32 @printf(i8*, ...) #1


!llvm.module.flags = !{!0}
!llvm.ident = !{!1}

!0 = !{i32 1, !"wchar_size", i32 4}
!1 = !{!"clang version 10.0.0-4ubuntu1 "}
